; Function Attrs: mustprogress nofree norecurse nosync nounwind willreturn memory(read, inaccessiblemem: none) uwtable
define noundef i32 @_ZN21MultiViewer_Container13viewerCounterEv(ptr nocapture noundef nonnull readonly align 8 dereferenceable(272) %0) local_unnamed_addr #12 align 2 {
  %2 = getelementptr inbounds i8, ptr %0, i64 264
  %3 = load ptr, ptr %2, align 8
  %4 = getelementptr inbounds i8, ptr %3, i64 12
  %5 = load i32, ptr %4, align 4
  %6 = getelementptr inbounds i8, ptr %3, i64 8
  %7 = load i32, ptr %6, align 8
  %8 = sub nsw i32 %5, %7
  ret i32 %8
}